; Function Attrs: mustprogress nofree norecurse nosync nounwind willreturn memory(argmem: read) uwtable
define ptr @ures_getKey_75(ptr noundef readonly %resB) local_unnamed_addr #9 {
entry:
  %cmp = icmp eq ptr %resB, null
  br i1 %cmp, label %return, label %if.end

if.end:                                           ; preds = %entry
  %0 = load ptr, ptr %resB, align 8
  br label %return

return:                                           ; preds = %entry, %if.end
  %retval.0 = phi ptr [ %0, %if.end ], [ null, %entry ]
  ret ptr %retval.0
}